target datalayout = "e-m:e-p270:32:32-p271:32:32-p272:64:64-i64:64-i128:128-f80:128-n8:16:32:64-S128"
target triple = "x86_64-pc-linux-gnu"

%struct.slurm_conf_t = type { i64, ptr, i16, ptr, ptr, ptr, ptr, ptr, i16, ptr, ptr, ptr, ptr, ptr, ptr, ptr, i16, ptr, ptr, ptr, ptr, i16, ptr, ptr, ptr, i64, ptr, ptr, ptr, ptr, i16, ptr, ptr, i16, i32, ptr, i32, ptr, i32, i32, ptr, ptr, i64, i64, ptr, i16, i16, ptr, i32, i32, ptr, i32, ptr, i32, i16, i16, i16, ptr, i16, i16, ptr, ptr, i32, i16, i16, ptr, i32, i16, ptr, ptr, ptr, ptr, i16, ptr, ptr, ptr, ptr, i32, ptr, ptr, ptr, ptr, i16, i16, ptr, i32, i32, i32, i16, i16, ptr, ptr, i16, ptr, ptr, i32, i32, i32, i32, i32, i64, i32, i32, i16, ptr, ptr, i32, ptr, ptr, ptr, i16, i32, ptr, ptr, i16, ptr, ptr, i32, i16, ptr, ptr, ptr, ptr, i32, i32, i16, i16, i32, ptr, i16, ptr, i32, i32, i32, i32, i32, i32, ptr, i16, ptr, ptr, i32, i16, ptr, i32, i16, i16, ptr, ptr, ptr, i16, ptr, ptr, ptr, ptr, i16, i16, ptr, i16, ptr, i16, ptr, i16, ptr, i16, ptr, ptr, ptr, ptr, i16, ptr, ptr, ptr, i32, ptr, i32, ptr, ptr, i16, ptr, ptr, i32, i16, ptr, ptr, i16, i16, ptr, i16, ptr, ptr, ptr, i32, ptr, i16, i16, ptr, ptr, ptr, ptr, ptr, ptr, ptr, ptr, i16, i32, i16, ptr, ptr, ptr, ptr, i32, ptr, ptr, ptr, i16, ptr, ptr, ptr, i16, ptr, i16, ptr, i16, i16, ptr }
%struct.agent_arg_t = type { i32, i16, i32, i8, ptr, ptr, i16, i32, ptr, i16 }
%struct.node_record = type { ptr, ptr, i16, i64, i64, ptr, ptr, ptr, i16, ptr, i16, i16, i32, i32, i64, ptr, i16, i16, ptr, ptr, ptr, ptr, ptr, i64, i64, ptr, ptr, ptr, ptr, i32, ptr, ptr, i64, i64, i32, ptr, i64, ptr, i32, i16, ptr, ptr, i32, ptr, i32, i8, ptr, i32, i16, i16, ptr, i16, i64, i16, i64, ptr, i64, i32, i16, i64, i16, ptr, i16, i64, ptr, i64, i16, i32, i16, ptr, ptr, ptr, i16, i32, i16, i16, i32, ptr, i16, i32 }

@slurm_conf = external global %struct.slurm_conf_t, align 8
@.str.4 = private unnamed_addr constant [13 x i8] c"ping_nodes.c\00", align 1
@cloud_dns = external global i8, align 1
@__func__.update_nodes_acct_gather_data = private unnamed_addr constant [30 x i8] c"update_nodes_acct_gather_data\00", align 1
@.str.11 = private unnamed_addr constant [41 x i8] c"ENERGY: Updating acct_gather data for %s\00", align 1

; Function Attrs: nounwind uwtable
define dso_local void @update_nodes_acct_gather_data() #0 {
  %1 = alloca ptr, align 8
  %2 = alloca i32, align 4
  %3 = alloca ptr, align 8
  %4 = alloca ptr, align 8
  call void @llvm.lifetime.start.p0(i64 8, ptr %1) #6
  call void @llvm.lifetime.start.p0(i64 4, ptr %2) #6
  call void @llvm.lifetime.start.p0(i64 8, ptr %3) #6
  store ptr null, ptr %3, align 8
  call void @llvm.lifetime.start.p0(i64 8, ptr %4) #6
  store ptr null, ptr %4, align 8
  %5 = call ptr @slurm_xcalloc(i64 noundef 1, i64 noundef 56, i1 noundef zeroext true, i1 noundef zeroext false, ptr noundef @.str.4, i32 noundef 538, ptr noundef @__func__.update_nodes_acct_gather_data)
  store ptr %5, ptr %4, align 8
  %6 = load ptr, ptr %4, align 8
  %7 = getelementptr inbounds nuw %struct.agent_arg_t, ptr %6, i32 0, i32 7
  store i32 1017, ptr %7, align 4
  %8 = load ptr, ptr %4, align 8
  %9 = getelementptr inbounds nuw %struct.agent_arg_t, ptr %8, i32 0, i32 1
  store i16 0, ptr %9, align 4
  %10 = load ptr, ptr %4, align 8
  %11 = getelementptr inbounds nuw %struct.agent_arg_t, ptr %10, i32 0, i32 6
  store i16 11008, ptr %11, align 8
  %12 = call ptr @hostlist_create(ptr noundef null)
  %13 = load ptr, ptr %4, align 8
  %14 = getelementptr inbounds nuw %struct.agent_arg_t, ptr %13, i32 0, i32 5
  store ptr %12, ptr %14, align 8
  store i32 0, ptr %2, align 4
  br label %15

15:                                               ; preds = %126, %0
  %16 = call ptr @next_node(ptr noundef %2)
  store ptr %16, ptr %1, align 8
  %17 = icmp ne ptr %16, null
  br i1 %17, label %18, label %129

18:                                               ; preds = %15
  %19 = load ptr, ptr %1, align 8
  %20 = getelementptr inbounds nuw %struct.node_record, ptr %19, i32 0, i32 44
  %21 = load i32, ptr %20, align 8
  %22 = and i32 %21, 15
  %23 = icmp eq i32 %22, 6
  br i1 %23, label %66, label %24

24:                                               ; preds = %18
  %25 = load ptr, ptr %1, align 8
  %26 = getelementptr inbounds nuw %struct.node_record, ptr %25, i32 0, i32 44
  %27 = load i32, ptr %26, align 8
  %28 = zext i32 %27 to i64
  %29 = and i64 %28, 4194304
  %30 = icmp ne i64 %29, 0
  br i1 %30, label %66, label %31

31:                                               ; preds = %24
  %32 = load ptr, ptr %1, align 8
  %33 = getelementptr inbounds nuw %struct.node_record, ptr %32, i32 0, i32 44
  %34 = load i32, ptr %33, align 8
  %35 = zext i32 %34 to i64
  %36 = and i64 %35, 2048
  %37 = icmp ne i64 %36, 0
  br i1 %37, label %66, label %38

38:                                               ; preds = %31
  %39 = load ptr, ptr %1, align 8
  %40 = getelementptr inbounds nuw %struct.node_record, ptr %39, i32 0, i32 44
  %41 = load i32, ptr %40, align 8
  %42 = zext i32 %41 to i64
  %43 = and i64 %42, 4096
  %44 = icmp ne i64 %43, 0
  br i1 %44, label %66, label %45

45:                                               ; preds = %38
  %46 = load ptr, ptr %1, align 8
  %47 = getelementptr inbounds nuw %struct.node_record, ptr %46, i32 0, i32 44
  %48 = load i32, ptr %47, align 8
  %49 = zext i32 %48 to i64
  %50 = and i64 %49, 262144
  %51 = icmp ne i64 %50, 0
  br i1 %51, label %66, label %52

52:                                               ; preds = %45
  %53 = load ptr, ptr %1, align 8
  %54 = getelementptr inbounds nuw %struct.node_record, ptr %53, i32 0, i32 44
  %55 = load i32, ptr %54, align 8
  %56 = zext i32 %55 to i64
  %57 = and i64 %56, 16384
  %58 = icmp ne i64 %57, 0
  br i1 %58, label %66, label %59

59:                                               ; preds = %52
  %60 = load ptr, ptr %1, align 8
  %61 = getelementptr inbounds nuw %struct.node_record, ptr %60, i32 0, i32 44
  %62 = load i32, ptr %61, align 8
  %63 = zext i32 %62 to i64
  %64 = and i64 %63, 1048576
  %65 = icmp ne i64 %64, 0
  br i1 %65, label %66, label %67

66:                                               ; preds = %59, %52, %45, %38, %31, %24, %18
  br label %126

67:                                               ; preds = %59
  %68 = load ptr, ptr %4, align 8
  %69 = getelementptr inbounds nuw %struct.agent_arg_t, ptr %68, i32 0, i32 6
  %70 = load i16, ptr %69, align 8
  %71 = zext i16 %70 to i32
  %72 = load ptr, ptr %1, align 8
  %73 = getelementptr inbounds nuw %struct.node_record, ptr %72, i32 0, i32 53
  %74 = load i16, ptr %73, align 8
  %75 = zext i16 %74 to i32
  %76 = icmp sgt i32 %71, %75
  br i1 %76, label %77, label %83

77:                                               ; preds = %67
  %78 = load ptr, ptr %1, align 8
  %79 = getelementptr inbounds nuw %struct.node_record, ptr %78, i32 0, i32 53
  %80 = load i16, ptr %79, align 8
  %81 = load ptr, ptr %4, align 8
  %82 = getelementptr inbounds nuw %struct.agent_arg_t, ptr %81, i32 0, i32 6
  store i16 %80, ptr %82, align 8
  br label %83

83:                                               ; preds = %77, %67
  %84 = load ptr, ptr %4, align 8
  %85 = getelementptr inbounds nuw %struct.agent_arg_t, ptr %84, i32 0, i32 5
  %86 = load ptr, ptr %85, align 8
  %87 = load ptr, ptr %1, align 8
  %88 = getelementptr inbounds nuw %struct.node_record, ptr %87, i32 0, i32 37
  %89 = load ptr, ptr %88, align 8
  %90 = call i32 @hostlist_push_host(ptr noundef %86, ptr noundef %89)
  %91 = load ptr, ptr %4, align 8
  %92 = getelementptr inbounds nuw %struct.agent_arg_t, ptr %91, i32 0, i32 0
  %93 = load i32, ptr %92, align 8
  %94 = add i32 %93, 1
  store i32 %94, ptr %92, align 8
  %95 = load ptr, ptr %1, align 8
  %96 = getelementptr inbounds nuw %struct.node_record, ptr %95, i32 0, i32 44
  %97 = load i32, ptr %96, align 8
  %98 = zext i32 %97 to i64
  %99 = and i64 %98, 524288
  %100 = icmp ne i64 %99, 0
  br i1 %100, label %118, label %101

101:                                              ; preds = %83
  %102 = load ptr, ptr %1, align 8
  %103 = getelementptr inbounds nuw %struct.node_record, ptr %102, i32 0, i32 44
  %104 = load i32, ptr %103, align 8
  %105 = zext i32 %104 to i64
  %106 = and i64 %105, 67108864
  %107 = icmp ne i64 %106, 0
  br i1 %107, label %118, label %108

108:                                              ; preds = %101
  %109 = load i8, ptr @cloud_dns, align 1, !range !8, !noundef !9
  %110 = trunc i8 %109 to i1
  br i1 %110, label %125, label %111

111:                                              ; preds = %108
  %112 = load ptr, ptr %1, align 8
  %113 = getelementptr inbounds nuw %struct.node_record, ptr %112, i32 0, i32 44
  %114 = load i32, ptr %113, align 8
  %115 = zext i32 %114 to i64
  %116 = and i64 %115, 128
  %117 = icmp ne i64 %116, 0
  br i1 %117, label %118, label %125

118:                                              ; preds = %111, %101, %83
  %119 = load ptr, ptr %4, align 8
  %120 = getelementptr inbounds nuw %struct.agent_arg_t, ptr %119, i32 0, i32 9
  %121 = load i16, ptr %120, align 8
  %122 = zext i16 %121 to i64
  %123 = or i64 %122, 128
  %124 = trunc i64 %123 to i16
  store i16 %124, ptr %120, align 8
  br label %125

125:                                              ; preds = %118, %111, %108
  br label %126

126:                                              ; preds = %125, %66
  %127 = load i32, ptr %2, align 4
  %128 = add nsw i32 %127, 1
  store i32 %128, ptr %2, align 4
  br label %15, !llvm.loop !14

129:                                              ; preds = %15
  %130 = load ptr, ptr %4, align 8
  %131 = getelementptr inbounds nuw %struct.agent_arg_t, ptr %130, i32 0, i32 0
  %132 = load i32, ptr %131, align 8
  %133 = icmp eq i32 %132, 0
  br i1 %133, label %134, label %138

134:                                              ; preds = %129
  %135 = load ptr, ptr %4, align 8
  %136 = getelementptr inbounds nuw %struct.agent_arg_t, ptr %135, i32 0, i32 5
  %137 = load ptr, ptr %136, align 8
  call void @hostlist_destroy(ptr noundef %137)
  call void @slurm_xfree(ptr noundef %4)
  br label %164

138:                                              ; preds = %129
  %139 = load ptr, ptr %4, align 8
  %140 = getelementptr inbounds nuw %struct.agent_arg_t, ptr %139, i32 0, i32 5
  %141 = load ptr, ptr %140, align 8
  call void @hostlist_uniq(ptr noundef %141)
  %142 = load ptr, ptr %4, align 8
  %143 = getelementptr inbounds nuw %struct.agent_arg_t, ptr %142, i32 0, i32 5
  %144 = load ptr, ptr %143, align 8
  %145 = call ptr @hostlist_ranged_string_xmalloc(ptr noundef %144)
  store ptr %145, ptr %3, align 8
  br label %146

146:                                              ; preds = %138
  %147 = load i64, ptr getelementptr inbounds nuw (%struct.slurm_conf_t, ptr @slurm_conf, i32 0, i32 42), align 8
  %148 = and i64 %147, 262144
  %149 = icmp ne i64 %148, 0
  br i1 %149, label %150, label %159

150:                                              ; preds = %146
  br label %151

151:                                              ; preds = %150
  %152 = call i32 @get_log_level()
  %153 = icmp sge i32 %152, 4
  br i1 %153, label %154, label %156

154:                                              ; preds = %151
  %155 = load ptr, ptr %3, align 8
  call void (i32, ptr, ...) @log_var(i32 noundef 4, ptr noundef @.str.11, ptr noundef %155)
  br label %156

156:                                              ; preds = %154, %151
  br label %157

157:                                              ; preds = %156
  br label %158

158:                                              ; preds = %157
  br label %159

159:                                              ; preds = %158, %146
  br label %160

160:                                              ; preds = %159
  br label %161

161:                                              ; preds = %160
  call void @slurm_xfree(ptr noundef %3)
  call void @ping_begin()
  %162 = load ptr, ptr %4, align 8
  call void @set_agent_arg_r_uid(ptr noundef %162, i32 noundef -1)
  %163 = load ptr, ptr %4, align 8
  call void @agent_queue_request(ptr noundef %163)
  br label %164

164:                                              ; preds = %161, %134
  call void @llvm.lifetime.end.p0(i64 8, ptr %4) #6
  call void @llvm.lifetime.end.p0(i64 8, ptr %3) #6
  call void @llvm.lifetime.end.p0(i64 4, ptr %2) #6
  call void @llvm.lifetime.end.p0(i64 8, ptr %1) #6
  ret void
}