; Function Attrs: nounwind uwtable
define dso_local void @update_nodes_acct_gather_data() local_unnamed_addr #0 {
  %1 = alloca i32, align 4
  %2 = alloca ptr, align 8
  %3 = alloca ptr, align 8
  call void @llvm.lifetime.start.p0(i64 4, ptr nonnull %1) #7
  call void @llvm.lifetime.start.p0(i64 8, ptr nonnull %2) #7
  call void @llvm.lifetime.start.p0(i64 8, ptr nonnull %3) #7
  %4 = tail call ptr @slurm_xcalloc(i64 noundef 1, i64 noundef 56, i1 noundef zeroext true, i1 noundef zeroext false, ptr noundef nonnull @.str.4, i32 noundef 538, ptr noundef nonnull @__func__.update_nodes_acct_gather_data) #7
  store ptr %4, ptr %3, align 8
  %5 = getelementptr inbounds nuw i8, ptr %4, i64 36
  store i32 1017, ptr %5, align 4
  %6 = getelementptr inbounds nuw i8, ptr %4, i64 4
  store i16 0, ptr %6, align 4
  %7 = getelementptr inbounds nuw i8, ptr %4, i64 32
  store i16 11008, ptr %7, align 8
  %8 = tail call ptr @hostlist_create(ptr noundef null) #7
  %9 = getelementptr inbounds nuw i8, ptr %4, i64 24
  store ptr %8, ptr %9, align 8
  store i32 0, ptr %1, align 4
  %10 = call ptr @next_node(ptr noundef nonnull %1) #7
  %.not29 = icmp eq ptr %10, null
  br i1 %.not29, label %._crit_edge, label %.lr.ph.preheader

.lr.ph.preheader:                                 ; preds = %0
  %11 = getelementptr inbounds nuw i8, ptr %4, i64 32
  %12 = getelementptr inbounds nuw i8, ptr %4, i64 24
  %13 = getelementptr inbounds nuw i8, ptr %4, i64 48
  br label %.lr.ph

.lr.ph:                                           ; preds = %.lr.ph.preheader, %43
  %14 = phi ptr [ %46, %43 ], [ %10, %.lr.ph.preheader ]
  %15 = getelementptr inbounds nuw i8, ptr %14, i64 320
  %16 = load i32, ptr %15, align 8
  %17 = and i32 %16, 15
  %18 = icmp ne i32 %17, 6
  %19 = and i32 %16, 5527552
  %or.cond26 = icmp eq i32 %19, 0
  %or.cond = and i1 %18, %or.cond26
  br i1 %or.cond, label %20, label %43

20:                                               ; preds = %.lr.ph
  %21 = load i16, ptr %11, align 8
  %22 = getelementptr inbounds nuw i8, ptr %14, i64 368
  %23 = load i16, ptr %22, align 8
  %24 = icmp ugt i16 %21, %23
  br i1 %24, label %25, label %26

25:                                               ; preds = %20
  store i16 %23, ptr %11, align 8
  br label %26

26:                                               ; preds = %25, %20
  %27 = load ptr, ptr %12, align 8
  %28 = getelementptr inbounds nuw i8, ptr %14, i64 272
  %29 = load ptr, ptr %28, align 8
  %30 = call i32 @hostlist_push_host(ptr noundef %27, ptr noundef %29) #7
  %31 = load i32, ptr %4, align 8
  %32 = add i32 %31, 1
  store i32 %32, ptr %4, align 8
  %33 = load i32, ptr %15, align 8
  %34 = zext i32 %33 to i64
  %35 = and i64 %34, 67633152
  %or.cond27 = icmp eq i64 %35, 0
  br i1 %or.cond27, label %36, label %40

36:                                               ; preds = %26
  %37 = load i8, ptr @cloud_dns, align 1, !range !8, !noundef !9
  %38 = trunc nuw i8 %37 to i1
  %39 = and i64 %34, 128
  %.not22 = icmp eq i64 %39, 0
  %or.cond28 = or i1 %.not22, %38
  br i1 %or.cond28, label %43, label %40

40:                                               ; preds = %36, %26
  %41 = load i16, ptr %13, align 8
  %42 = or i16 %41, 128
  store i16 %42, ptr %13, align 8
  br label %43

43:                                               ; preds = %36, %40, %.lr.ph
  %44 = load i32, ptr %1, align 4
  %45 = add nsw i32 %44, 1
  store i32 %45, ptr %1, align 4
  %46 = call ptr @next_node(ptr noundef nonnull %1) #7
  %.not = icmp eq ptr %46, null
  br i1 %.not, label %._crit_edge, label %.lr.ph, !llvm.loop !14

._crit_edge:                                      ; preds = %43, %0
  %47 = load i32, ptr %4, align 8
  %48 = icmp eq i32 %47, 0
  %49 = load ptr, ptr %9, align 8
  br i1 %48, label %50, label %51

50:                                               ; preds = %._crit_edge
  call void @hostlist_destroy(ptr noundef %49) #7
  call void @slurm_xfree(ptr noundef nonnull %3) #7
  br label %61

51:                                               ; preds = %._crit_edge
  call void @hostlist_uniq(ptr noundef %49) #7
  %52 = load ptr, ptr %9, align 8
  %53 = call ptr @hostlist_ranged_string_xmalloc(ptr noundef %52) #7
  store ptr %53, ptr %2, align 8
  %54 = load i64, ptr getelementptr inbounds nuw (i8, ptr @slurm_conf, i64 320), align 8
  %55 = and i64 %54, 262144
  %.not13 = icmp eq i64 %55, 0
  br i1 %.not13, label %60, label %56

56:                                               ; preds = %51
  %57 = call i32 @get_log_level() #7
  %58 = icmp sgt i32 %57, 3
  br i1 %58, label %59, label %60

59:                                               ; preds = %56
  call void (i32, ptr, ...) @log_var(i32 noundef 4, ptr noundef nonnull @.str.11, ptr noundef %53) #7
  br label %60

60:                                               ; preds = %56, %59, %51
  call void @slurm_xfree(ptr noundef nonnull %2) #7
  call void @ping_begin()
  call void @set_agent_arg_r_uid(ptr noundef nonnull %4, i32 noundef -1) #7
  call void @agent_queue_request(ptr noundef nonnull %4) #7
  br label %61

61:                                               ; preds = %60, %50
  call void @llvm.lifetime.end.p0(i64 8, ptr nonnull %3) #7
  call void @llvm.lifetime.end.p0(i64 8, ptr nonnull %2) #7
  call void @llvm.lifetime.end.p0(i64 4, ptr nonnull %1) #7
  ret void
}